; Function Attrs: mustprogress uwtable
define internal fastcc void @_ZN12_GLOBAL__N_128CreateInstallTargetGeneratorER8cmTargetRK25cmInstallCommandArgumentsbRK19cmListFileBacktraceRKNSt7__cxx1112basic_stringIcSt11char_traitsIcESaIcEEEbb(ptr dead_on_unwind noalias writable align 8 %0, ptr noundef nonnull align 8 dereferenceable(8) %1, ptr noundef nonnull align 8 dereferenceable(440) %2, i1 noundef zeroext %3, ptr noundef nonnull align 8 dereferenceable(16) %4, ptr noundef nonnull align 8 dereferenceable(32) %5, i1 noundef zeroext %6, i1 noundef zeroext %7) unnamed_addr #5 personality ptr @__gxx_personality_v0 {
  %9 = alloca i8, align 1
  %10 = alloca i32, align 4
  %11 = alloca i8, align 1
  %12 = alloca i8, align 1
  %13 = zext i1 %3 to i8
  store i8 %13, ptr %9, align 1
  %14 = tail call noundef ptr @_ZNK8cmTarget11GetMakefileEv(ptr noundef nonnull align 8 dereferenceable(8) %1)
  %15 = tail call noundef i32 @_ZN18cmInstallGenerator18SelectMessageLevelEP10cmMakefileb(ptr noundef %14, i1 noundef zeroext false)
  store i32 %15, ptr %10, align 4
  tail call void @_ZN8cmTarget18SetHaveInstallRuleEb(ptr noundef nonnull align 8 dereferenceable(8) %1, i1 noundef zeroext true)
  br i1 %7, label %16, label %18

16:                                               ; preds = %8
  %17 = tail call noundef nonnull align 8 dereferenceable(32) ptr @_ZNK25cmInstallCommandArguments20GetNamelinkComponentB5cxx11Ev(ptr noundef nonnull align 8 dereferenceable(440) %2)
  br label %20

18:                                               ; preds = %8
  %19 = tail call noundef nonnull align 8 dereferenceable(32) ptr @_ZNK25cmInstallCommandArguments12GetComponentB5cxx11Ev(ptr noundef nonnull align 8 dereferenceable(440) %2)
  br label %20

20:                                               ; preds = %18, %16
  %21 = phi ptr [ %17, %16 ], [ %19, %18 ]
  %22 = tail call noundef nonnull align 8 dereferenceable(32) ptr @_ZNK8cmTarget7GetNameB5cxx11Ev(ptr noundef nonnull align 8 dereferenceable(8) %1)
  %23 = tail call noundef nonnull align 8 dereferenceable(32) ptr @_ZNK25cmInstallCommandArguments14GetPermissionsB5cxx11Ev(ptr noundef nonnull align 8 dereferenceable(440) %2)
  %24 = tail call noundef nonnull align 8 dereferenceable(24) ptr @_ZNK25cmInstallCommandArguments17GetConfigurationsB5cxx11Ev(ptr noundef nonnull align 8 dereferenceable(440) %2)
  %25 = tail call noundef zeroext i1 @_ZNK25cmInstallCommandArguments17GetExcludeFromAllEv(ptr noundef nonnull align 8 dereferenceable(440) %2)
  %26 = zext i1 %25 to i8
  store i8 %26, ptr %11, align 1
  %27 = tail call noundef zeroext i1 @_ZNK25cmInstallCommandArguments11GetOptionalEv(ptr noundef nonnull align 8 dereferenceable(440) %2)
  %28 = or i1 %27, %6
  %29 = zext i1 %28 to i8
  store i8 %29, ptr %12, align 1
  call void @_ZSt11make_uniqueI24cmInstallTargetGeneratorJRKNSt7__cxx1112basic_stringIcSt11char_traitsIcESaIcEEES8_RbS8_RKSt6vectorIS6_SaIS6_EES8_RN18cmInstallGenerator12MessageLevelEbbRK19cmListFileBacktraceEENSt8__detail9_MakeUniqIT_E15__single_objectEDpOT0_(ptr dead_on_unwind writable sret(%"class.std::unique_ptr.410") align 8 %0, ptr noundef nonnull align 8 dereferenceable(32) %22, ptr noundef nonnull align 8 dereferenceable(32) %5, ptr noundef nonnull align 1 dereferenceable(1) %9, ptr noundef nonnull align 8 dereferenceable(32) %23, ptr noundef nonnull align 8 dereferenceable(24) %24, ptr noundef nonnull align 8 dereferenceable(32) %21, ptr noundef nonnull align 4 dereferenceable(4) %10, ptr noundef nonnull align 1 dereferenceable(1) %11, ptr noundef nonnull align 1 dereferenceable(1) %12, ptr noundef nonnull align 8 dereferenceable(16) %4)
  %30 = load ptr, ptr %0, align 8
  invoke void @_ZN8cmTarget19AddInstallGeneratorEP24cmInstallTargetGenerator(ptr noundef nonnull align 8 dereferenceable(8) %1, ptr noundef %30)
          to label %37 unwind label %31

31:                                               ; preds = %20
  %32 = landingpad { ptr, i32 }
          cleanup
  %33 = load ptr, ptr %0, align 8
  %.not.i = icmp eq ptr %33, null
  br i1 %.not.i, label %_ZNSt10unique_ptrI24cmInstallTargetGeneratorSt14default_deleteIS0_EED2Ev.exit, label %_ZNKSt14default_deleteI24cmInstallTargetGeneratorEclEPS0_.exit.i

_ZNKSt14default_deleteI24cmInstallTargetGeneratorEclEPS0_.exit.i: ; preds = %31
  %34 = load ptr, ptr %33, align 8
  %35 = getelementptr inbounds i8, ptr %34, i64 8
  %36 = load ptr, ptr %35, align 8
  call void %36(ptr noundef nonnull align 8 dereferenceable(282) %33) #19
  br label %_ZNSt10unique_ptrI24cmInstallTargetGeneratorSt14default_deleteIS0_EED2Ev.exit

_ZNSt10unique_ptrI24cmInstallTargetGeneratorSt14default_deleteIS0_EED2Ev.exit: ; preds = %31, %_ZNKSt14default_deleteI24cmInstallTargetGeneratorEclEPS0_.exit.i
  store ptr null, ptr %0, align 8
  resume { ptr, i32 } %32

37:                                               ; preds = %20
  ret void
}